; Function Attrs: nounwind uwtable
define ptr @l_Lean_throwUnknownIdentifier___at_Lean_Elab_Term_elabOpen___spec__18___boxed(ptr noundef %0, ptr noundef %1, ptr noundef %2, ptr noundef %3, ptr noundef %4, ptr noundef %5, ptr noundef %6, ptr noundef %7, ptr noundef %8) local_unnamed_addr #0 {
  %10 = load ptr, ptr @l_Lean_unknownIdentifierMessageTag, align 8, !tbaa !4
  tail call void @lean_inc_heartbeat() #6
  %11 = tail call noalias ptr @mi_malloc_small(i64 noundef 24) #6
  %12 = icmp eq ptr %11, null
  br i1 %12, label %13, label %l_Lean_throwUnknownIdentifier___at_Lean_Elab_Term_elabOpen___spec__18.exit

13:                                               ; preds = %9
  tail call void @lean_internal_panic_out_of_memory() #7
  unreachable

l_Lean_throwUnknownIdentifier___at_Lean_Elab_Term_elabOpen___spec__18.exit: ; preds = %9
  %14 = getelementptr inbounds nuw i8, ptr %11, i64 4
  store i32 1, ptr %11, align 4, !tbaa !8
  store i32 134348824, ptr %14, align 4
  %15 = getelementptr inbounds nuw i8, ptr %11, i64 8
  store ptr %10, ptr %15, align 8, !tbaa !4
  %16 = getelementptr inbounds nuw i8, ptr %11, i64 16
  store ptr %0, ptr %16, align 8, !tbaa !4
  %17 = tail call ptr @l_Lean_throwError___at_Lean_Elab_Term_elabOpen___spec__19(ptr noundef nonnull %11, ptr readnone poison, ptr readnone poison, ptr readnone poison, ptr noundef %4, ptr noundef %5, ptr noundef %6, ptr noundef %7, ptr noundef %8)
  %18 = ptrtoint ptr %7 to i64
  %19 = and i64 %18, 1
  %.not = icmp eq i64 %19, 0
  br i1 %.not, label %20, label %lean_dec.exit22

20:                                               ; preds = %l_Lean_throwUnknownIdentifier___at_Lean_Elab_Term_elabOpen___spec__18.exit
  %21 = load i32, ptr %7, align 4, !tbaa !8
  %22 = icmp sgt i32 %21, 1
  br i1 %22, label %23, label %25, !prof !15

23:                                               ; preds = %20
  %24 = add nsw i32 %21, -1
  store i32 %24, ptr %7, align 4, !tbaa !8
  br label %lean_dec.exit22

25:                                               ; preds = %20
  %.not.i = icmp eq i32 %21, 0
  br i1 %.not.i, label %lean_dec.exit22, label %26

26:                                               ; preds = %25
  tail call void @lean_dec_ref_cold(ptr noundef nonnull %7) #6
  br label %lean_dec.exit22

lean_dec.exit22:                                  ; preds = %26, %25, %23, %l_Lean_throwUnknownIdentifier___at_Lean_Elab_Term_elabOpen___spec__18.exit
  %27 = ptrtoint ptr %6 to i64
  %28 = and i64 %27, 1
  %.not35 = icmp eq i64 %28, 0
  br i1 %.not35, label %29, label %lean_dec.exit21

29:                                               ; preds = %lean_dec.exit22
  %30 = load i32, ptr %6, align 4, !tbaa !8
  %31 = icmp sgt i32 %30, 1
  br i1 %31, label %32, label %34, !prof !15

32:                                               ; preds = %29
  %33 = add nsw i32 %30, -1
  store i32 %33, ptr %6, align 4, !tbaa !8
  br label %lean_dec.exit21

34:                                               ; preds = %29
  %.not.i23 = icmp eq i32 %30, 0
  br i1 %.not.i23, label %lean_dec.exit21, label %35

35:                                               ; preds = %34
  tail call void @lean_dec_ref_cold(ptr noundef nonnull %6) #6
  br label %lean_dec.exit21

lean_dec.exit21:                                  ; preds = %35, %34, %32, %lean_dec.exit22
  %36 = ptrtoint ptr %5 to i64
  %37 = and i64 %36, 1
  %.not36 = icmp eq i64 %37, 0
  br i1 %.not36, label %38, label %lean_dec.exit20

38:                                               ; preds = %lean_dec.exit21
  %39 = load i32, ptr %5, align 4, !tbaa !8
  %40 = icmp sgt i32 %39, 1
  br i1 %40, label %41, label %43, !prof !15

41:                                               ; preds = %38
  %42 = add nsw i32 %39, -1
  store i32 %42, ptr %5, align 4, !tbaa !8
  br label %lean_dec.exit20

43:                                               ; preds = %38
  %.not.i25 = icmp eq i32 %39, 0
  br i1 %.not.i25, label %lean_dec.exit20, label %44

44:                                               ; preds = %43
  tail call void @lean_dec_ref_cold(ptr noundef nonnull %5) #6
  br label %lean_dec.exit20

lean_dec.exit20:                                  ; preds = %44, %43, %41, %lean_dec.exit21
  %45 = ptrtoint ptr %4 to i64
  %46 = and i64 %45, 1
  %.not37 = icmp eq i64 %46, 0
  br i1 %.not37, label %47, label %lean_dec.exit19

47:                                               ; preds = %lean_dec.exit20
  %48 = load i32, ptr %4, align 4, !tbaa !8
  %49 = icmp sgt i32 %48, 1
  br i1 %49, label %50, label %52, !prof !15

50:                                               ; preds = %47
  %51 = add nsw i32 %48, -1
  store i32 %51, ptr %4, align 4, !tbaa !8
  br label %lean_dec.exit19

52:                                               ; preds = %47
  %.not.i27 = icmp eq i32 %48, 0
  br i1 %.not.i27, label %lean_dec.exit19, label %53

53:                                               ; preds = %52
  tail call void @lean_dec_ref_cold(ptr noundef nonnull %4) #6
  br label %lean_dec.exit19

lean_dec.exit19:                                  ; preds = %53, %52, %50, %lean_dec.exit20
  %54 = ptrtoint ptr %3 to i64
  %55 = and i64 %54, 1
  %.not38 = icmp eq i64 %55, 0
  br i1 %.not38, label %56, label %lean_dec.exit18

56:                                               ; preds = %lean_dec.exit19
  %57 = load i32, ptr %3, align 4, !tbaa !8
  %58 = icmp sgt i32 %57, 1
  br i1 %58, label %59, label %61, !prof !15

59:                                               ; preds = %56
  %60 = add nsw i32 %57, -1
  store i32 %60, ptr %3, align 4, !tbaa !8
  br label %lean_dec.exit18

61:                                               ; preds = %56
  %.not.i29 = icmp eq i32 %57, 0
  br i1 %.not.i29, label %lean_dec.exit18, label %62

62:                                               ; preds = %61
  tail call void @lean_dec_ref_cold(ptr noundef nonnull %3) #6
  br label %lean_dec.exit18

lean_dec.exit18:                                  ; preds = %62, %61, %59, %lean_dec.exit19
  %63 = ptrtoint ptr %2 to i64
  %64 = and i64 %63, 1
  %.not39 = icmp eq i64 %64, 0
  br i1 %.not39, label %65, label %lean_dec.exit17

65:                                               ; preds = %lean_dec.exit18
  %66 = load i32, ptr %2, align 4, !tbaa !8
  %67 = icmp sgt i32 %66, 1
  br i1 %67, label %68, label %70, !prof !15

68:                                               ; preds = %65
  %69 = add nsw i32 %66, -1
  store i32 %69, ptr %2, align 4, !tbaa !8
  br label %lean_dec.exit17

70:                                               ; preds = %65
  %.not.i31 = icmp eq i32 %66, 0
  br i1 %.not.i31, label %lean_dec.exit17, label %71

71:                                               ; preds = %70
  tail call void @lean_dec_ref_cold(ptr noundef nonnull %2) #6
  br label %lean_dec.exit17

lean_dec.exit17:                                  ; preds = %71, %70, %68, %lean_dec.exit18
  %72 = ptrtoint ptr %1 to i64
  %73 = and i64 %72, 1
  %.not40 = icmp eq i64 %73, 0
  br i1 %.not40, label %74, label %lean_dec.exit

74:                                               ; preds = %lean_dec.exit17
  %75 = load i32, ptr %1, align 4, !tbaa !8
  %76 = icmp sgt i32 %75, 1
  br i1 %76, label %77, label %79, !prof !15

77:                                               ; preds = %74
  %78 = add nsw i32 %75, -1
  store i32 %78, ptr %1, align 4, !tbaa !8
  br label %lean_dec.exit

79:                                               ; preds = %74
  %.not.i33 = icmp eq i32 %75, 0
  br i1 %.not.i33, label %lean_dec.exit, label %80

80:                                               ; preds = %79
  tail call void @lean_dec_ref_cold(ptr noundef nonnull %1) #6
  br label %lean_dec.exit

lean_dec.exit:                                    ; preds = %80, %79, %77, %lean_dec.exit17
  ret ptr %17
}